; Function Attrs: mustprogress uwtable
define noundef double @_ZNK8QuantLib18RangeAccrualPricer11swapletRateEv(ptr noundef nonnull align 8 dereferenceable(168) %this) unnamed_addr #8 align 2 {
entry:
  %vtable = load ptr, ptr %this, align 8, !tbaa !33
  %vfn = getelementptr inbounds i8, ptr %vtable, i64 16
  %0 = load ptr, ptr %vfn, align 8
  %call = tail call noundef double %0(ptr noundef nonnull align 8 dereferenceable(8) %this)
  %accrualFactor_ = getelementptr inbounds nuw i8, ptr %this, i64 32
  %1 = load double, ptr %accrualFactor_, align 8, !tbaa !113
  %discount_ = getelementptr inbounds nuw i8, ptr %this, i64 136
  %2 = load double, ptr %discount_, align 8, !tbaa !112
  %mul = fmul double %1, %2
  %div = fdiv double %call, %mul
  ret double %div
}